target datalayout = "e-m:e-p270:32:32-p271:32:32-p272:64:64-i64:64-i128:128-f80:128-n8:16:32:64-S128"
target triple = "x86_64-pc-linux-gnu"

%"struct.faiss::ScalarQuantizer::SQuantizer" = type { ptr }
%"struct.faiss::(anonymous namespace)::QuantizerTemplate.5" = type { %"struct.faiss::ScalarQuantizer::SQuantizer", i64, float, float }
%"struct.faiss::ScalarQuantizer::SQDistanceComputer" = type { %"struct.faiss::FlatCodesDistanceComputer", ptr }
%"struct.faiss::FlatCodesDistanceComputer" = type { %"struct.faiss::DistanceComputer", ptr, i64 }
%"struct.faiss::DistanceComputer" = type { ptr }
%"struct.faiss::(anonymous namespace)::DCTemplate.20" = type { %"struct.faiss::ScalarQuantizer::SQDistanceComputer", %"struct.faiss::(anonymous namespace)::QuantizerTemplate.5" }
%"struct.faiss::(anonymous namespace)::SimilarityIP" = type <{ ptr, ptr, float, [4 x i8] }>

; Function Attrs: mustprogress nounwind uwtable
define internal void @_ZN5faiss12_GLOBAL__N_112SimilarityIPILi1EEC2EPKf(ptr noundef nonnull align 8 dereferenceable(20) %0, ptr noundef %1) unnamed_addr #1 align 2 {
  %3 = alloca ptr, align 8
  %4 = alloca ptr, align 8
  store ptr %0, ptr %3, align 8
  store ptr %1, ptr %4, align 8
  %5 = load ptr, ptr %3, align 8
  %6 = getelementptr inbounds %"struct.faiss::(anonymous namespace)::SimilarityIP", ptr %5, i32 0, i32 0
  %7 = load ptr, ptr %4, align 8
  store ptr %7, ptr %6, align 8
  ret void
}

; Function Attrs: mustprogress uwtable
define internal noundef float @_ZNK5faiss12_GLOBAL__N_110DCTemplateINS0_17QuantizerTemplateINS0_9Codec8bitELb1ELi1EEENS0_12SimilarityIPILi1EEELi1EE21compute_code_distanceEPKhS9_(ptr noundef nonnull align 8 dereferenceable(56) %0, ptr noundef %1, ptr noundef %2) #0 align 2 {
  %4 = alloca ptr, align 8
  %5 = alloca ptr, align 8
  %6 = alloca float, align 4
  %7 = alloca float, align 4
  %8 = alloca ptr, align 8
  %9 = alloca ptr, align 8
  %10 = alloca i32, align 4
  %11 = alloca ptr, align 8
  %12 = alloca ptr, align 8
  %13 = alloca i32, align 4
  %14 = alloca float, align 4
  %15 = alloca ptr, align 8
  %16 = alloca i32, align 4
  %17 = alloca ptr, align 8
  %18 = alloca ptr, align 8
  %19 = alloca i32, align 4
  %20 = alloca float, align 4
  %21 = alloca ptr, align 8
  %22 = alloca ptr, align 8
  %23 = alloca ptr, align 8
  %24 = alloca %"struct.faiss::(anonymous namespace)::SimilarityIP", align 8
  %25 = alloca i64, align 8
  %26 = alloca float, align 4
  %27 = alloca float, align 4
  store ptr %0, ptr %21, align 8
  store ptr %1, ptr %22, align 8
  store ptr %2, ptr %23, align 8
  %28 = load ptr, ptr %21, align 8
  call void @_ZN5faiss12_GLOBAL__N_112SimilarityIPILi1EEC2EPKf(ptr noundef nonnull align 8 dereferenceable(20) %24, ptr noundef null)
  store ptr %24, ptr %8, align 8
  %29 = load ptr, ptr %8, align 8
  %30 = getelementptr inbounds %"struct.faiss::(anonymous namespace)::SimilarityIP", ptr %29, i32 0, i32 2
  store float 0.000000e+00, ptr %30, align 8
  %31 = load ptr, ptr %29, align 8
  %32 = getelementptr inbounds %"struct.faiss::(anonymous namespace)::SimilarityIP", ptr %29, i32 0, i32 1
  store ptr %31, ptr %32, align 8
  store i64 0, ptr %25, align 8
  br label %33

33:                                               ; preds = %92, %3
  %34 = load i64, ptr %25, align 8
  %35 = getelementptr inbounds %"struct.faiss::(anonymous namespace)::DCTemplate.20", ptr %28, i32 0, i32 1
  %36 = getelementptr inbounds %"struct.faiss::(anonymous namespace)::QuantizerTemplate.5", ptr %35, i32 0, i32 1
  %37 = load i64, ptr %36, align 8
  %38 = icmp ult i64 %34, %37
  br i1 %38, label %39, label %95

39:                                               ; preds = %33
  %40 = getelementptr inbounds %"struct.faiss::(anonymous namespace)::DCTemplate.20", ptr %28, i32 0, i32 1
  %41 = load ptr, ptr %22, align 8
  %42 = load i64, ptr %25, align 8
  %43 = trunc i64 %42 to i32
  store ptr %40, ptr %11, align 8
  store ptr %41, ptr %12, align 8
  store i32 %43, ptr %13, align 4
  %44 = load ptr, ptr %11, align 8
  %45 = load ptr, ptr %12, align 8
  %46 = load i32, ptr %13, align 4
  store ptr %45, ptr %9, align 8
  store i32 %46, ptr %10, align 4
  %47 = load ptr, ptr %9, align 8
  %48 = load i32, ptr %10, align 4
  %49 = sext i32 %48 to i64
  %50 = getelementptr inbounds i8, ptr %47, i64 %49
  %51 = load i8, ptr %50, align 1
  %52 = zext i8 %51 to i32
  %53 = sitofp i32 %52 to float
  %54 = fadd float %53, 5.000000e-01
  %55 = fdiv float %54, 2.550000e+02
  store float %55, ptr %14, align 4
  %56 = getelementptr inbounds %"struct.faiss::(anonymous namespace)::QuantizerTemplate.5", ptr %44, i32 0, i32 2
  %57 = load float, ptr %56, align 8
  %58 = load float, ptr %14, align 4
  %59 = getelementptr inbounds %"struct.faiss::(anonymous namespace)::QuantizerTemplate.5", ptr %44, i32 0, i32 3
  %60 = load float, ptr %59, align 4
  %61 = call noundef float @llvm.fmuladd.f32(float %58, float %60, float %57)
  store float %61, ptr %26, align 4
  %62 = getelementptr inbounds %"struct.faiss::(anonymous namespace)::DCTemplate.20", ptr %28, i32 0, i32 1
  %63 = load ptr, ptr %23, align 8
  %64 = load i64, ptr %25, align 8
  %65 = trunc i64 %64 to i32
  store ptr %62, ptr %17, align 8
  store ptr %63, ptr %18, align 8
  store i32 %65, ptr %19, align 4
  %66 = load ptr, ptr %17, align 8
  %67 = load ptr, ptr %18, align 8
  %68 = load i32, ptr %19, align 4
  store ptr %67, ptr %15, align 8
  store i32 %68, ptr %16, align 4
  %69 = load ptr, ptr %15, align 8
  %70 = load i32, ptr %16, align 4
  %71 = sext i32 %70 to i64
  %72 = getelementptr inbounds i8, ptr %69, i64 %71
  %73 = load i8, ptr %72, align 1
  %74 = zext i8 %73 to i32
  %75 = sitofp i32 %74 to float
  %76 = fadd float %75, 5.000000e-01
  %77 = fdiv float %76, 2.550000e+02
  store float %77, ptr %20, align 4
  %78 = getelementptr inbounds %"struct.faiss::(anonymous namespace)::QuantizerTemplate.5", ptr %66, i32 0, i32 2
  %79 = load float, ptr %78, align 8
  %80 = load float, ptr %20, align 4
  %81 = getelementptr inbounds %"struct.faiss::(anonymous namespace)::QuantizerTemplate.5", ptr %66, i32 0, i32 3
  %82 = load float, ptr %81, align 4
  %83 = call noundef float @llvm.fmuladd.f32(float %80, float %82, float %79)
  store float %83, ptr %27, align 4
  %84 = load float, ptr %26, align 4
  %85 = load float, ptr %27, align 4
  store ptr %24, ptr %5, align 8
  store float %84, ptr %6, align 4
  store float %85, ptr %7, align 4
  %86 = load ptr, ptr %5, align 8
  %87 = load float, ptr %6, align 4
  %88 = load float, ptr %7, align 4
  %89 = getelementptr inbounds %"struct.faiss::(anonymous namespace)::SimilarityIP", ptr %86, i32 0, i32 2
  %90 = load float, ptr %89, align 8
  %91 = call float @llvm.fmuladd.f32(float %87, float %88, float %90)
  store float %91, ptr %89, align 8
  br label %92

92:                                               ; preds = %39
  %93 = load i64, ptr %25, align 8
  %94 = add i64 %93, 1
  store i64 %94, ptr %25, align 8
  br label %33, !llvm.loop !61

95:                                               ; preds = %33
  store ptr %24, ptr %4, align 8
  %96 = load ptr, ptr %4, align 8
  %97 = getelementptr inbounds %"struct.faiss::(anonymous namespace)::SimilarityIP", ptr %96, i32 0, i32 2
  %98 = load float, ptr %97, align 8
  ret float %98
}

; Function Attrs: mustprogress uwtable
define internal noundef float @_ZN5faiss12_GLOBAL__N_110DCTemplateINS0_17QuantizerTemplateINS0_9Codec8bitELb1ELi1EEENS0_12SimilarityIPILi1EEELi1EE13symmetric_disEll(ptr noundef nonnull align 8 dereferenceable(56) %0, i64 noundef %1, i64 noundef %2) unnamed_addr #0 align 2 {
  %4 = alloca ptr, align 8
  %5 = alloca i64, align 8
  %6 = alloca i64, align 8
  store ptr %0, ptr %4, align 8
  store i64 %1, ptr %5, align 8
  store i64 %2, ptr %6, align 8
  %7 = load ptr, ptr %4, align 8
  %8 = getelementptr inbounds %"struct.faiss::FlatCodesDistanceComputer", ptr %7, i32 0, i32 1
  %9 = load ptr, ptr %8, align 8
  %10 = load i64, ptr %5, align 8
  %11 = getelementptr inbounds %"struct.faiss::FlatCodesDistanceComputer", ptr %7, i32 0, i32 2
  %12 = load i64, ptr %11, align 8
  %13 = mul i64 %10, %12
  %14 = getelementptr inbounds i8, ptr %9, i64 %13
  %15 = getelementptr inbounds %"struct.faiss::FlatCodesDistanceComputer", ptr %7, i32 0, i32 1
  %16 = load ptr, ptr %15, align 8
  %17 = load i64, ptr %6, align 8
  %18 = getelementptr inbounds %"struct.faiss::FlatCodesDistanceComputer", ptr %7, i32 0, i32 2
  %19 = load i64, ptr %18, align 8
  %20 = mul i64 %17, %19
  %21 = getelementptr inbounds i8, ptr %16, i64 %20
  %22 = call noundef float @_ZNK5faiss12_GLOBAL__N_110DCTemplateINS0_17QuantizerTemplateINS0_9Codec8bitELb1ELi1EEENS0_12SimilarityIPILi1EEELi1EE21compute_code_distanceEPKhS9_(ptr noundef nonnull align 8 dereferenceable(56) %7, ptr noundef %14, ptr noundef %21)
  ret float %22
}