; Function Attrs: mustprogress nofree norecurse nosync nounwind willreturn memory(read, inaccessiblemem: none) uwtable
define internal noundef float @_ZN5faiss12_GLOBAL__N_110DCTemplateINS0_17QuantizerTemplateINS0_9Codec8bitELb1ELi1EEENS0_12SimilarityIPILi1EEELi1EE13symmetric_disEll(ptr nocapture noundef nonnull readonly align 8 dereferenceable(56) %0, i64 noundef %1, i64 noundef %2) unnamed_addr #20 align 2 {
  %4 = getelementptr inbounds i8, ptr %0, i64 8
  %5 = load ptr, ptr %4, align 8
  %6 = getelementptr inbounds i8, ptr %0, i64 16
  %7 = load i64, ptr %6, align 8
  %8 = mul i64 %7, %1
  %9 = getelementptr inbounds i8, ptr %5, i64 %8
  %10 = mul i64 %7, %2
  %11 = getelementptr inbounds i8, ptr %5, i64 %10
  %12 = getelementptr inbounds i8, ptr %0, i64 40
  %13 = load i64, ptr %12, align 8
  %.not.i = icmp eq i64 %13, 0
  br i1 %.not.i, label %_ZNK5faiss12_GLOBAL__N_110DCTemplateINS0_17QuantizerTemplateINS0_9Codec8bitELb1ELi1EEENS0_12SimilarityIPILi1EEELi1EE21compute_code_distanceEPKhS9_.exit, label %.lr.ph.i

.lr.ph.i:                                         ; preds = %3
  %14 = getelementptr inbounds i8, ptr %0, i64 48
  %15 = load float, ptr %14, align 8
  %16 = getelementptr inbounds i8, ptr %0, i64 52
  %17 = load float, ptr %16, align 4
  br label %18

18:                                               ; preds = %18, %.lr.ph.i
  %.027.i = phi i64 [ 0, %.lr.ph.i ], [ %33, %18 ]
  %.sroa.3.026.i = phi float [ 0.000000e+00, %.lr.ph.i ], [ %32, %18 ]
  %sext.i = shl i64 %.027.i, 32
  %19 = ashr exact i64 %sext.i, 32
  %20 = getelementptr inbounds i8, ptr %9, i64 %19
  %21 = load i8, ptr %20, align 1
  %22 = uitofp i8 %21 to float
  %23 = fadd float %22, 5.000000e-01
  %24 = fdiv float %23, 2.550000e+02
  %25 = tail call noundef float @llvm.fmuladd.f32(float %24, float %17, float %15)
  %26 = getelementptr inbounds i8, ptr %11, i64 %19
  %27 = load i8, ptr %26, align 1
  %28 = uitofp i8 %27 to float
  %29 = fadd float %28, 5.000000e-01
  %30 = fdiv float %29, 2.550000e+02
  %31 = tail call noundef float @llvm.fmuladd.f32(float %30, float %17, float %15)
  %32 = tail call float @llvm.fmuladd.f32(float %25, float %31, float %.sroa.3.026.i)
  %33 = add nuw i64 %.027.i, 1
  %exitcond.not.i = icmp eq i64 %33, %13
  br i1 %exitcond.not.i, label %_ZNK5faiss12_GLOBAL__N_110DCTemplateINS0_17QuantizerTemplateINS0_9Codec8bitELb1ELi1EEENS0_12SimilarityIPILi1EEELi1EE21compute_code_distanceEPKhS9_.exit, label %18, !llvm.loop !60

_ZNK5faiss12_GLOBAL__N_110DCTemplateINS0_17QuantizerTemplateINS0_9Codec8bitELb1ELi1EEENS0_12SimilarityIPILi1EEELi1EE21compute_code_distanceEPKhS9_.exit: ; preds = %18, %3
  %.sroa.3.0.lcssa.i = phi float [ 0.000000e+00, %3 ], [ %32, %18 ]
  ret float %.sroa.3.0.lcssa.i
}